target datalayout = "e-m:e-p270:32:32-p271:32:32-p272:64:64-i64:64-i128:128-f80:128-n8:16:32:64-S128"
target triple = "x86_64-pc-linux-gnu"

%struct.strbuf = type { i64, i64, ptr }
%struct.string_list = type { ptr, i64, i64, i8, ptr }
%struct.string_list_item = type { ptr, ptr }

@.str.19 = private unnamed_addr constant [1 x i8] zeroinitializer, align 1
@git_gettext_enabled = external global i32, align 4
@del_list = internal global { ptr, i64, i64, i8, [7 x i8], ptr } { ptr null, i64 0, i64 0, i8 1, [7 x i8] zeroinitializer, ptr null }, align 8
@stdout = external global ptr, align 8
@__const.ask_each_cmd.confirm = private unnamed_addr constant %struct.strbuf { i64 0, i64 0, ptr @strbuf_slopbuf }, align 8
@__const.ask_each_cmd.buf = private unnamed_addr constant %struct.strbuf { i64 0, i64 0, ptr @strbuf_slopbuf }, align 8
@.str.50 = private unnamed_addr constant [18 x i8] c"Remove %s [y/N]? \00", align 1
@.str.51 = private unnamed_addr constant [4 x i8] c"yes\00", align 1

; Function Attrs: inlinehint nounwind uwtable
define available_externally i32 @putchar(i32 noundef %0) #2 {
  %2 = alloca i32, align 4
  store i32 %0, ptr %2, align 4, !tbaa !15
  %3 = load i32, ptr %2, align 4, !tbaa !15
  %4 = load ptr, ptr @stdout, align 8, !tbaa !143
  %5 = call i32 @putc(i32 noundef %3, ptr noundef %4)
  ret i32 %5
}

; Function Attrs: inlinehint nounwind uwtable
define internal ptr @_(ptr noundef %0) #2 {
  %2 = alloca ptr, align 8
  %3 = alloca ptr, align 8
  store ptr %0, ptr %3, align 8, !tbaa !9
  %4 = load ptr, ptr %3, align 8, !tbaa !9
  %5 = load i8, ptr %4, align 1, !tbaa !90
  %6 = icmp ne i8 %5, 0
  br i1 %6, label %8, label %7

7:                                                ; preds = %1
  store ptr @.str.19, ptr %2, align 8
  br label %16

8:                                                ; preds = %1
  %9 = load i32, ptr @git_gettext_enabled, align 4, !tbaa !15
  %10 = icmp ne i32 %9, 0
  br i1 %10, label %13, label %11

11:                                               ; preds = %8
  %12 = load ptr, ptr %3, align 8, !tbaa !9
  store ptr %12, ptr %2, align 8
  br label %16

13:                                               ; preds = %8
  %14 = load ptr, ptr %3, align 8, !tbaa !9
  %15 = call ptr @dcgettext(ptr noundef null, ptr noundef %14, i32 noundef 5) #11
  store ptr %15, ptr %2, align 8
  br label %16

16:                                               ; preds = %13, %11, %7
  %17 = load ptr, ptr %2, align 8
  ret ptr %17
}

; Function Attrs: nounwind uwtable
define internal i32 @ask_each_cmd() #0 {
  %1 = alloca %struct.strbuf, align 8
  %2 = alloca %struct.strbuf, align 8
  %3 = alloca ptr, align 8
  %4 = alloca ptr, align 8
  %5 = alloca i32, align 4
  %6 = alloca i32, align 4
  call void @llvm.lifetime.start.p0(i64 24, ptr %1) #11
  call void @llvm.memcpy.p0.p0.i64(ptr align 8 %1, ptr align 8 @__const.ask_each_cmd.confirm, i64 24, i1 false)
  call void @llvm.lifetime.start.p0(i64 24, ptr %2) #11
  call void @llvm.memcpy.p0.p0.i64(ptr align 8 %2, ptr align 8 @__const.ask_each_cmd.buf, i64 24, i1 false)
  call void @llvm.lifetime.start.p0(i64 8, ptr %3) #11
  call void @llvm.lifetime.start.p0(i64 8, ptr %4) #11
  call void @llvm.lifetime.start.p0(i64 4, ptr %5) #11
  store i32 0, ptr %5, align 4, !tbaa !15
  call void @llvm.lifetime.start.p0(i64 4, ptr %6) #11
  store i32 0, ptr %6, align 4, !tbaa !15
  %7 = load ptr, ptr @del_list, align 8, !tbaa !69
  store ptr %7, ptr %3, align 8, !tbaa !82
  br label %8

8:                                                ; preds = %53, %0
  %9 = load ptr, ptr %3, align 8, !tbaa !82
  %10 = icmp ne ptr %9, null
  br i1 %10, label %11, label %17

11:                                               ; preds = %8
  %12 = load ptr, ptr %3, align 8, !tbaa !82
  %13 = load ptr, ptr @del_list, align 8, !tbaa !69
  %14 = load i64, ptr getelementptr inbounds nuw (%struct.string_list, ptr @del_list, i32 0, i32 1), align 8, !tbaa !66
  %15 = getelementptr inbounds nuw %struct.string_list_item, ptr %13, i64 %14
  %16 = icmp ult ptr %12, %15
  br label %17

17:                                               ; preds = %11, %8
  %18 = phi i1 [ false, %8 ], [ %16, %11 ]
  br i1 %18, label %19, label %56

19:                                               ; preds = %17
  %20 = load i32, ptr %6, align 4, !tbaa !15
  %21 = icmp ne i32 %20, 0
  br i1 %21, label %35, label %22

22:                                               ; preds = %19
  %23 = load ptr, ptr %3, align 8, !tbaa !82
  %24 = getelementptr inbounds nuw %struct.string_list_item, ptr %23, i32 0, i32 0
  %25 = load ptr, ptr %24, align 8, !tbaa !70
  %26 = call ptr @quote_path(ptr noundef %25, ptr noundef null, ptr noundef %2, i32 noundef 0)
  store ptr %26, ptr %4, align 8, !tbaa !9
  %27 = call ptr @_(ptr noundef @.str.50)
  %28 = load ptr, ptr %4, align 8, !tbaa !9
  %29 = call i32 (ptr, ...) @printf(ptr noundef %27, ptr noundef %28)
  %30 = call i32 @git_read_line_interactively(ptr noundef %1)
  %31 = icmp eq i32 %30, -1
  br i1 %31, label %32, label %34

32:                                               ; preds = %22
  %33 = call i32 @putchar(i32 noundef 10)
  store i32 1, ptr %6, align 4, !tbaa !15
  br label %34

34:                                               ; preds = %32, %22
  br label %35

35:                                               ; preds = %34, %19
  %36 = getelementptr inbounds nuw %struct.strbuf, ptr %1, i32 0, i32 1
  %37 = load i64, ptr %36, align 8, !tbaa !114
  %38 = icmp ne i64 %37, 0
  br i1 %38, label %39, label %46

39:                                               ; preds = %35
  %40 = getelementptr inbounds nuw %struct.strbuf, ptr %1, i32 0, i32 2
  %41 = load ptr, ptr %40, align 8, !tbaa !83
  %42 = getelementptr inbounds nuw %struct.strbuf, ptr %1, i32 0, i32 1
  %43 = load i64, ptr %42, align 8, !tbaa !114
  %44 = call i32 @strncasecmp(ptr noundef %41, ptr noundef @.str.51, i64 noundef %43) #14
  %45 = icmp ne i32 %44, 0
  br i1 %45, label %46, label %52

46:                                               ; preds = %39, %35
  %47 = load ptr, ptr %3, align 8, !tbaa !82
  %48 = getelementptr inbounds nuw %struct.string_list_item, ptr %47, i32 0, i32 0
  %49 = load ptr, ptr %48, align 8, !tbaa !70
  store i8 0, ptr %49, align 1, !tbaa !90
  %50 = load i32, ptr %5, align 4, !tbaa !15
  %51 = add nsw i32 %50, 1
  store i32 %51, ptr %5, align 4, !tbaa !15
  br label %52

52:                                               ; preds = %46, %39
  br label %53

53:                                               ; preds = %52
  %54 = load ptr, ptr %3, align 8, !tbaa !82
  %55 = getelementptr inbounds nuw %struct.string_list_item, ptr %54, i32 1
  store ptr %55, ptr %3, align 8, !tbaa !82
  br label %8, !llvm.loop !131

56:                                               ; preds = %17
  %57 = load i32, ptr %5, align 4, !tbaa !15
  %58 = icmp ne i32 %57, 0
  br i1 %58, label %59, label %60

59:                                               ; preds = %56
  call void @string_list_remove_empty_items(ptr noundef @del_list, i32 noundef 0)
  br label %60

60:                                               ; preds = %59, %56
  call void @strbuf_release(ptr noundef %2)
  call void @strbuf_release(ptr noundef %1)
  call void @llvm.lifetime.end.p0(i64 4, ptr %6) #11
  call void @llvm.lifetime.end.p0(i64 4, ptr %5) #11
  call void @llvm.lifetime.end.p0(i64 8, ptr %4) #11
  call void @llvm.lifetime.end.p0(i64 8, ptr %3) #11
  call void @llvm.lifetime.end.p0(i64 24, ptr %2) #11
  call void @llvm.lifetime.end.p0(i64 24, ptr %1) #11
  ret i32 10
}