; Function Attrs: nounwind uwtable
define internal noundef i32 @ask_each_cmd() #0 {
  %1 = alloca %struct.strbuf, align 8
  %2 = alloca %struct.strbuf, align 8
  call void @llvm.lifetime.start.p0(i64 24, ptr nonnull %1) #16
  call void @llvm.memcpy.p0.p0.i64(ptr noundef nonnull align 8 dereferenceable(24) %1, ptr noundef nonnull align 8 dereferenceable(24) @__const.remove_dirs.real_ocwd, i64 24, i1 false)
  call void @llvm.lifetime.start.p0(i64 24, ptr nonnull %2) #16
  call void @llvm.memcpy.p0.p0.i64(ptr noundef nonnull align 8 dereferenceable(24) %2, ptr noundef nonnull align 8 dereferenceable(24) @__const.remove_dirs.real_ocwd, i64 24, i1 false)
  %3 = load ptr, ptr @del_list, align 8, !tbaa !59
  %.not16 = icmp eq ptr %3, null
  br i1 %.not16, label %.critedge.thread, label %.lr.ph

.lr.ph:                                           ; preds = %0
  %4 = getelementptr inbounds nuw i8, ptr %1, i64 8
  %5 = getelementptr inbounds nuw i8, ptr %1, i64 16
  %6 = load ptr, ptr @del_list, align 8, !tbaa !59
  %7 = load i64, ptr getelementptr inbounds nuw (i8, ptr @del_list, i64 8), align 8, !tbaa !56
  %8 = getelementptr inbounds nuw %struct.string_list_item, ptr %6, i64 %7
  %9 = icmp ult ptr %3, %8
  br i1 %9, label %.lr.ph26, label %.critedge.thread

.lr.ph26:                                         ; preds = %.lr.ph, %30
  %.0101725 = phi ptr [ %31, %30 ], [ %3, %.lr.ph ]
  %.081824 = phi i32 [ %.19, %30 ], [ 0, %.lr.ph ]
  %.01923 = phi i32 [ %.1, %30 ], [ 0, %.lr.ph ]
  %.not13 = icmp eq i32 %.01923, 0
  br i1 %.not13, label %10, label %22

10:                                               ; preds = %.lr.ph26
  %11 = load ptr, ptr %.0101725, align 8, !tbaa !60
  %12 = call ptr @quote_path(ptr noundef %11, ptr noundef null, ptr noundef nonnull %2, i32 noundef 0) #16
  %13 = load i32, ptr @git_gettext_enabled, align 4, !tbaa !11
  %.not4.i = icmp eq i32 %13, 0
  br i1 %.not4.i, label %_.exit, label %14

14:                                               ; preds = %10
  %15 = call ptr @dcgettext(ptr noundef null, ptr noundef nonnull @.str.50, i32 noundef 5) #16
  br label %_.exit

_.exit:                                           ; preds = %10, %14
  %.0.i = phi ptr [ %15, %14 ], [ @.str.50, %10 ]
  %16 = call i32 (ptr, ...) @printf(ptr noundef nonnull dereferenceable(1) %.0.i, ptr noundef %12)
  %17 = call i32 @git_read_line_interactively(ptr noundef nonnull %1) #16
  %18 = icmp eq i32 %17, -1
  br i1 %18, label %19, label %22

19:                                               ; preds = %_.exit
  %20 = load ptr, ptr @stdout, align 8, !tbaa !99
  %21 = call i32 @putc(i32 noundef 10, ptr noundef %20)
  br label %22

22:                                               ; preds = %_.exit, %19, %.lr.ph26
  %.1 = phi i32 [ 1, %.lr.ph26 ], [ 1, %19 ], [ 0, %_.exit ]
  %23 = load i64, ptr %4, align 8, !tbaa !88
  %.not14 = icmp eq i64 %23, 0
  br i1 %.not14, label %27, label %24

24:                                               ; preds = %22
  %25 = load ptr, ptr %5, align 8, !tbaa !89
  %26 = call i32 @strncasecmp(ptr noundef %25, ptr noundef nonnull @.str.51, i64 noundef %23) #18
  %.not15 = icmp eq i32 %26, 0
  br i1 %.not15, label %30, label %27

27:                                               ; preds = %24, %22
  %28 = load ptr, ptr %.0101725, align 8, !tbaa !60
  store i8 0, ptr %28, align 1, !tbaa !90
  %29 = add nsw i32 %.081824, 1
  br label %30

30:                                               ; preds = %24, %27
  %.19 = phi i32 [ %29, %27 ], [ %.081824, %24 ]
  %31 = getelementptr inbounds nuw i8, ptr %.0101725, i64 16
  %32 = load ptr, ptr @del_list, align 8, !tbaa !59
  %33 = load i64, ptr getelementptr inbounds nuw (i8, ptr @del_list, i64 8), align 8, !tbaa !56
  %34 = getelementptr inbounds nuw %struct.string_list_item, ptr %32, i64 %33
  %35 = icmp ult ptr %31, %34
  br i1 %35, label %.lr.ph26, label %..critedge_crit_edge

..critedge_crit_edge:                             ; preds = %30
  %36 = icmp eq i32 %.19, 0
  br i1 %36, label %.critedge.thread, label %37

37:                                               ; preds = %..critedge_crit_edge
  call void @string_list_remove_empty_items(ptr noundef nonnull @del_list, i32 noundef 0) #16
  br label %.critedge.thread

.critedge.thread:                                 ; preds = %.lr.ph, %0, %37, %..critedge_crit_edge
  call void @strbuf_release(ptr noundef nonnull %2) #16
  call void @strbuf_release(ptr noundef nonnull %1) #16
  call void @llvm.lifetime.end.p0(i64 24, ptr nonnull %2) #16
  call void @llvm.lifetime.end.p0(i64 24, ptr nonnull %1) #16
  ret i32 10
}